target datalayout = "e-m:e-p270:32:32-p271:32:32-p272:64:64-i64:64-i128:128-f80:128-n8:16:32:64-S128"
target triple = "x86_64-pc-linux-gnu"

%"struct.OpenColorIO_v2_5dev::Primaries" = type { %"struct.OpenColorIO_v2_5dev::Chromaticities", %"struct.OpenColorIO_v2_5dev::Chromaticities", %"struct.OpenColorIO_v2_5dev::Chromaticities", %"struct.OpenColorIO_v2_5dev::Chromaticities" }
%"struct.OpenColorIO_v2_5dev::Chromaticities" = type { [2 x double] }
%"class.std::shared_ptr" = type { %"class.std::__shared_ptr" }
%"class.std::__shared_ptr" = type { ptr, %"class.std::__shared_count" }
%"class.std::__shared_count" = type { ptr }

@_ZN19OpenColorIO_v2_5dev8ACES_AP09primariesE = external global %"struct.OpenColorIO_v2_5dev::Primaries", align 8

; Function Attrs: inlinehint mustprogress uwtable
define internal void @"_ZZN19OpenColorIO_v2_5dev4ACES11RegisterAllERNS_28BuiltinTransformRegistryImplEENK3$_0clERNS_10OpRcPtrVecE"(ptr noundef nonnull align 1 dereferenceable(1) %0, ptr noundef nonnull align 8 dereferenceable(144) %1) #9 align 2 personality ptr @__gxx_personality_v0 {
  %3 = alloca ptr, align 8
  %4 = alloca ptr, align 8
  %5 = alloca %"class.std::shared_ptr", align 8
  %6 = alloca ptr, align 8
  %7 = alloca i32, align 4
  store ptr %0, ptr %3, align 8, !tbaa !26
  store ptr %1, ptr %4, align 8, !tbaa !3
  call void @llvm.lifetime.start.p0(i64 16, ptr %5) #3
  call void @_ZN19OpenColorIO_v2_5dev34build_conversion_matrix_to_XYZ_D65ERKNS_9PrimariesENS_16AdaptationMethodE(ptr dead_on_unwind writable sret(%"class.std::shared_ptr") align 8 %5, ptr noundef nonnull align 8 dereferenceable(64) @_ZN19OpenColorIO_v2_5dev8ACES_AP09primariesE, i32 noundef 1)
  %8 = load ptr, ptr %4, align 8, !tbaa !3
  invoke void @_ZN19OpenColorIO_v2_5dev14CreateMatrixOpERNS_10OpRcPtrVecERSt10shared_ptrINS_12MatrixOpData11MatrixArrayEENS_18TransformDirectionE(ptr noundef nonnull align 8 dereferenceable(144) %8, ptr noundef nonnull align 8 dereferenceable(16) %5, i32 noundef 0)
          to label %9 unwind label %10

9:                                                ; preds = %2
  call void @_ZNSt12__shared_ptrIN19OpenColorIO_v2_5dev12MatrixOpData11MatrixArrayELN9__gnu_cxx12_Lock_policyE2EED2Ev(ptr noundef nonnull align 8 dereferenceable(16) %5) #3
  call void @llvm.lifetime.end.p0(i64 16, ptr %5) #3
  ret void

10:                                               ; preds = %2
  %11 = landingpad { ptr, i32 }
          cleanup
  %12 = extractvalue { ptr, i32 } %11, 0
  store ptr %12, ptr %6, align 8
  %13 = extractvalue { ptr, i32 } %11, 1
  store i32 %13, ptr %7, align 4
  call void @_ZNSt12__shared_ptrIN19OpenColorIO_v2_5dev12MatrixOpData11MatrixArrayELN9__gnu_cxx12_Lock_policyE2EED2Ev(ptr noundef nonnull align 8 dereferenceable(16) %5) #3
  call void @llvm.lifetime.end.p0(i64 16, ptr %5) #3
  br label %14

14:                                               ; preds = %10
  %15 = load ptr, ptr %6, align 8
  %16 = load i32, ptr %7, align 4
  %17 = insertvalue { ptr, i32 } poison, ptr %15, 0
  %18 = insertvalue { ptr, i32 } %17, i32 %16, 1
  resume { ptr, i32 } %18
}

; Function Attrs: mustprogress nounwind uwtable
define linkonce_odr hidden noundef ptr @_ZNKSt9_Any_data9_M_accessEv(ptr noundef nonnull align 8 dereferenceable(16) %0) #6 comdat align 2 {
  %2 = alloca ptr, align 8
  store ptr %0, ptr %2, align 8, !tbaa !170
  %3 = load ptr, ptr %2, align 8
  %4 = getelementptr inbounds [16 x i8], ptr %3, i64 0, i64 0
  ret ptr %4
}

; Function Attrs: mustprogress uwtable
define internal void @"_ZSt13__invoke_implIvRZN19OpenColorIO_v2_5dev4ACES11RegisterAllERNS0_28BuiltinTransformRegistryImplEE3$_0JRNS0_10OpRcPtrVecEEET_St14__invoke_otherOT0_DpOT1_"(ptr noundef nonnull align 1 dereferenceable(1) %0, ptr noundef nonnull align 8 dereferenceable(144) %1) #4 {
  %3 = alloca ptr, align 8
  %4 = alloca ptr, align 8
  store ptr %0, ptr %3, align 8, !tbaa !26
  store ptr %1, ptr %4, align 8, !tbaa !3
  %5 = load ptr, ptr %3, align 8, !tbaa !26
  %6 = load ptr, ptr %4, align 8, !tbaa !3
  call void @"_ZZN19OpenColorIO_v2_5dev4ACES11RegisterAllERNS_28BuiltinTransformRegistryImplEENK3$_0clERNS_10OpRcPtrVecE"(ptr noundef nonnull align 1 dereferenceable(1) %5, ptr noundef nonnull align 8 dereferenceable(144) %6)
  ret void
}

; Function Attrs: mustprogress nounwind uwtable
define internal noundef nonnull align 1 dereferenceable(1) ptr @"_ZNKSt9_Any_data9_M_accessIZN19OpenColorIO_v2_5dev4ACES11RegisterAllERNS1_28BuiltinTransformRegistryImplEE3$_0EERKT_v"(ptr noundef nonnull align 8 dereferenceable(16) %0) #6 align 2 {
  %2 = alloca ptr, align 8
  store ptr %0, ptr %2, align 8, !tbaa !170
  %3 = load ptr, ptr %2, align 8
  %4 = call noundef ptr @_ZNKSt9_Any_data9_M_accessEv(ptr noundef nonnull align 8 dereferenceable(16) %3) #3
  ret ptr %4
}

; Function Attrs: mustprogress uwtable
define internal void @"_ZSt10__invoke_rIvRZN19OpenColorIO_v2_5dev4ACES11RegisterAllERNS0_28BuiltinTransformRegistryImplEE3$_0JRNS0_10OpRcPtrVecEEENSt9enable_ifIXsr6__and_ISt7is_voidIT_ESt14__is_invocableIT0_JDpT1_EEEE5valueESA_E4typeEOSD_DpOSE_"(ptr noundef nonnull align 1 dereferenceable(1) %0, ptr noundef nonnull align 8 dereferenceable(144) %1) #4 {
  %3 = alloca ptr, align 8
  %4 = alloca ptr, align 8
  store ptr %0, ptr %3, align 8, !tbaa !26
  store ptr %1, ptr %4, align 8, !tbaa !3
  %5 = load ptr, ptr %3, align 8, !tbaa !26
  %6 = load ptr, ptr %4, align 8, !tbaa !3
  call void @"_ZSt13__invoke_implIvRZN19OpenColorIO_v2_5dev4ACES11RegisterAllERNS0_28BuiltinTransformRegistryImplEE3$_0JRNS0_10OpRcPtrVecEEET_St14__invoke_otherOT0_DpOT1_"(ptr noundef nonnull align 1 dereferenceable(1) %5, ptr noundef nonnull align 8 dereferenceable(144) %6)
  ret void
}

; Function Attrs: mustprogress nounwind uwtable
define internal noundef ptr @"_ZNSt14_Function_base13_Base_managerIZN19OpenColorIO_v2_5dev4ACES11RegisterAllERNS1_28BuiltinTransformRegistryImplEE3$_0E14_M_get_pointerERKSt9_Any_data"(ptr noundef nonnull align 8 dereferenceable(16) %0) #6 align 2 {
  %2 = alloca ptr, align 8
  %3 = alloca ptr, align 8
  store ptr %0, ptr %2, align 8, !tbaa !170
  call void @llvm.lifetime.start.p0(i64 8, ptr %3) #3
  %4 = load ptr, ptr %2, align 8, !tbaa !170
  %5 = call noundef nonnull align 1 dereferenceable(1) ptr @"_ZNKSt9_Any_data9_M_accessIZN19OpenColorIO_v2_5dev4ACES11RegisterAllERNS1_28BuiltinTransformRegistryImplEE3$_0EERKT_v"(ptr noundef nonnull align 8 dereferenceable(16) %4) #3
  store ptr %5, ptr %3, align 8, !tbaa !26
  %6 = load ptr, ptr %3, align 8, !tbaa !26
  call void @llvm.lifetime.end.p0(i64 8, ptr %3) #3
  ret ptr %6
}

; Function Attrs: mustprogress uwtable
define internal void @"_ZNSt17_Function_handlerIFvRN19OpenColorIO_v2_5dev10OpRcPtrVecEEZNS0_4ACES11RegisterAllERNS0_28BuiltinTransformRegistryImplEE3$_0E9_M_invokeERKSt9_Any_dataS2_"(ptr noundef nonnull align 8 dereferenceable(16) %0, ptr noundef nonnull align 8 dereferenceable(144) %1) #4 align 2 {
  %3 = alloca ptr, align 8
  %4 = alloca ptr, align 8
  store ptr %0, ptr %3, align 8, !tbaa !170
  store ptr %1, ptr %4, align 8, !tbaa !3
  %5 = load ptr, ptr %3, align 8, !tbaa !170
  %6 = call noundef ptr @"_ZNSt14_Function_base13_Base_managerIZN19OpenColorIO_v2_5dev4ACES11RegisterAllERNS1_28BuiltinTransformRegistryImplEE3$_0E14_M_get_pointerERKSt9_Any_data"(ptr noundef nonnull align 8 dereferenceable(16) %5) #3
  %7 = load ptr, ptr %4, align 8, !tbaa !3
  call void @"_ZSt10__invoke_rIvRZN19OpenColorIO_v2_5dev4ACES11RegisterAllERNS0_28BuiltinTransformRegistryImplEE3$_0JRNS0_10OpRcPtrVecEEENSt9enable_ifIXsr6__and_ISt7is_voidIT_ESt14__is_invocableIT0_JDpT1_EEEE5valueESA_E4typeEOSD_DpOSE_"(ptr noundef nonnull align 1 dereferenceable(1) %6, ptr noundef nonnull align 8 dereferenceable(144) %7)
  ret void
}